target datalayout = "e-m:e-p270:32:32-p271:32:32-p272:64:64-i64:64-i128:128-f80:128-n8:16:32:64-S128"
target triple = "x86_64-pc-linux-gnu"

%"class.tinyxml2::StrPair" = type { i32, ptr, ptr }
%"class.tinyxml2::XMLNode" = type { ptr, ptr, ptr, %"class.tinyxml2::StrPair", i32, ptr, ptr, ptr, ptr, ptr, ptr }

@.str.27 = private unnamed_addr constant [2 x i8] c">\00", align 1

; Function Attrs: mustprogress nounwind uwtable
define void @_ZN8tinyxml27StrPair5ResetEv(ptr noundef nonnull align 8 dereferenceable(24) %0) #0 align 2 {
  %2 = alloca ptr, align 8
  store ptr %0, ptr %2, align 8, !tbaa !3
  %3 = load ptr, ptr %2, align 8
  %4 = getelementptr inbounds nuw %"class.tinyxml2::StrPair", ptr %3, i32 0, i32 0
  %5 = load i32, ptr %4, align 8, !tbaa !8
  %6 = and i32 %5, 512
  %7 = icmp ne i32 %6, 0
  br i1 %7, label %8, label %14

8:                                                ; preds = %1
  %9 = getelementptr inbounds nuw %"class.tinyxml2::StrPair", ptr %3, i32 0, i32 1
  %10 = load ptr, ptr %9, align 8, !tbaa !12
  %11 = icmp eq ptr %10, null
  br i1 %11, label %13, label %12

12:                                               ; preds = %8
  call void @_ZdaPv(ptr noundef %10) #17
  br label %13

13:                                               ; preds = %12, %8
  br label %14

14:                                               ; preds = %13, %1
  %15 = getelementptr inbounds nuw %"class.tinyxml2::StrPair", ptr %3, i32 0, i32 0
  store i32 0, ptr %15, align 8, !tbaa !8
  %16 = getelementptr inbounds nuw %"class.tinyxml2::StrPair", ptr %3, i32 0, i32 1
  store ptr null, ptr %16, align 8, !tbaa !12
  %17 = getelementptr inbounds nuw %"class.tinyxml2::StrPair", ptr %3, i32 0, i32 2
  store ptr null, ptr %17, align 8, !tbaa !13
  ret void
}

; Function Attrs: mustprogress nounwind uwtable
define linkonce_odr hidden void @_ZN8tinyxml27StrPair3SetEPcS1_i(ptr noundef nonnull align 8 dereferenceable(24) %0, ptr noundef %1, ptr noundef %2, i32 noundef %3) #0 comdat align 2 {
  %5 = alloca ptr, align 8
  %6 = alloca ptr, align 8
  %7 = alloca ptr, align 8
  %8 = alloca i32, align 4
  store ptr %0, ptr %5, align 8, !tbaa !3
  store ptr %1, ptr %6, align 8, !tbaa !14
  store ptr %2, ptr %7, align 8, !tbaa !14
  store i32 %3, ptr %8, align 4, !tbaa !15
  %9 = load ptr, ptr %5, align 8
  call void @_ZN8tinyxml27StrPair5ResetEv(ptr noundef nonnull align 8 dereferenceable(24) %9)
  %10 = load ptr, ptr %6, align 8, !tbaa !14
  %11 = getelementptr inbounds nuw %"class.tinyxml2::StrPair", ptr %9, i32 0, i32 1
  store ptr %10, ptr %11, align 8, !tbaa !12
  %12 = load ptr, ptr %7, align 8, !tbaa !14
  %13 = getelementptr inbounds nuw %"class.tinyxml2::StrPair", ptr %9, i32 0, i32 2
  store ptr %12, ptr %13, align 8, !tbaa !13
  %14 = load i32, ptr %8, align 4, !tbaa !15
  %15 = or i32 %14, 256
  %16 = getelementptr inbounds nuw %"class.tinyxml2::StrPair", ptr %9, i32 0, i32 0
  store i32 %15, ptr %16, align 8, !tbaa !8
  ret void
}

; Function Attrs: mustprogress uwtable
define noundef ptr @_ZN8tinyxml27StrPair9ParseTextEPcPKciPi(ptr noundef nonnull align 8 dereferenceable(24) %0, ptr noundef %1, ptr noundef %2, i32 noundef %3, ptr noundef %4) #2 align 2 {
  %6 = alloca ptr, align 8
  %7 = alloca ptr, align 8
  %8 = alloca ptr, align 8
  %9 = alloca ptr, align 8
  %10 = alloca i32, align 4
  %11 = alloca ptr, align 8
  %12 = alloca ptr, align 8
  %13 = alloca i8, align 1
  %14 = alloca i64, align 8
  %15 = alloca i32, align 4
  store ptr %0, ptr %7, align 8, !tbaa !3
  store ptr %1, ptr %8, align 8, !tbaa !14
  store ptr %2, ptr %9, align 8, !tbaa !14
  store i32 %3, ptr %10, align 4, !tbaa !15
  store ptr %4, ptr %11, align 8, !tbaa !18
  %16 = load ptr, ptr %7, align 8
  call void @llvm.lifetime.start.p0(i64 8, ptr %12) #18
  %17 = load ptr, ptr %8, align 8, !tbaa !14
  store ptr %17, ptr %12, align 8, !tbaa !14
  call void @llvm.lifetime.start.p0(i64 1, ptr %13) #18
  %18 = load ptr, ptr %9, align 8, !tbaa !14
  %19 = load i8, ptr %18, align 1, !tbaa !20
  store i8 %19, ptr %13, align 1, !tbaa !20
  call void @llvm.lifetime.start.p0(i64 8, ptr %14) #18
  %20 = load ptr, ptr %9, align 8, !tbaa !14
  %21 = call i64 @strlen(ptr noundef %20) #19
  store i64 %21, ptr %14, align 8, !tbaa !16
  br label %22

22:                                               ; preds = %56, %5
  %23 = load ptr, ptr %8, align 8, !tbaa !14
  %24 = load i8, ptr %23, align 1, !tbaa !20
  %25 = icmp ne i8 %24, 0
  br i1 %25, label %26, label %59

26:                                               ; preds = %22
  %27 = load ptr, ptr %8, align 8, !tbaa !14
  %28 = load i8, ptr %27, align 1, !tbaa !20
  %29 = sext i8 %28 to i32
  %30 = load i8, ptr %13, align 1, !tbaa !20
  %31 = sext i8 %30 to i32
  %32 = icmp eq i32 %29, %31
  br i1 %32, label %33, label %46

33:                                               ; preds = %26
  %34 = load ptr, ptr %8, align 8, !tbaa !14
  %35 = load ptr, ptr %9, align 8, !tbaa !14
  %36 = load i64, ptr %14, align 8, !tbaa !16
  %37 = call i32 @strncmp(ptr noundef %34, ptr noundef %35, i64 noundef %36) #19
  %38 = icmp eq i32 %37, 0
  br i1 %38, label %39, label %46

39:                                               ; preds = %33
  %40 = load ptr, ptr %12, align 8, !tbaa !14
  %41 = load ptr, ptr %8, align 8, !tbaa !14
  %42 = load i32, ptr %10, align 4, !tbaa !15
  call void @_ZN8tinyxml27StrPair3SetEPcS1_i(ptr noundef nonnull align 8 dereferenceable(24) %16, ptr noundef %40, ptr noundef %41, i32 noundef %42)
  %43 = load ptr, ptr %8, align 8, !tbaa !14
  %44 = load i64, ptr %14, align 8, !tbaa !16
  %45 = getelementptr inbounds nuw i8, ptr %43, i64 %44
  store ptr %45, ptr %6, align 8
  store i32 1, ptr %15, align 4
  br label %60

46:                                               ; preds = %33, %26
  %47 = load ptr, ptr %8, align 8, !tbaa !14
  %48 = load i8, ptr %47, align 1, !tbaa !20
  %49 = sext i8 %48 to i32
  %50 = icmp eq i32 %49, 10
  br i1 %50, label %51, label %55

51:                                               ; preds = %46
  %52 = load ptr, ptr %11, align 8, !tbaa !18
  %53 = load i32, ptr %52, align 4, !tbaa !15
  %54 = add nsw i32 %53, 1
  store i32 %54, ptr %52, align 4, !tbaa !15
  br label %55

55:                                               ; preds = %51, %46
  br label %56

56:                                               ; preds = %55
  %57 = load ptr, ptr %8, align 8, !tbaa !14
  %58 = getelementptr inbounds nuw i8, ptr %57, i32 1
  store ptr %58, ptr %8, align 8, !tbaa !14
  br label %22, !llvm.loop !21

59:                                               ; preds = %22
  store ptr null, ptr %6, align 8
  store i32 1, ptr %15, align 4
  br label %60

60:                                               ; preds = %59, %39
  call void @llvm.lifetime.end.p0(i64 8, ptr %14) #18
  call void @llvm.lifetime.end.p0(i64 1, ptr %13) #18
  call void @llvm.lifetime.end.p0(i64 8, ptr %12) #18
  %61 = load ptr, ptr %6, align 8
  ret ptr %61
}

; Function Attrs: mustprogress uwtable
define noundef ptr @_ZN8tinyxml210XMLUnknown9ParseDeepEPcPNS_7StrPairEPi(ptr noundef nonnull align 8 dereferenceable(104) %0, ptr noundef %1, ptr noundef %2, ptr noundef %3) unnamed_addr #2 align 2 {
  %5 = alloca ptr, align 8
  %6 = alloca ptr, align 8
  %7 = alloca ptr, align 8
  %8 = alloca ptr, align 8
  store ptr %0, ptr %5, align 8, !tbaa !102
  store ptr %1, ptr %6, align 8, !tbaa !14
  store ptr %2, ptr %7, align 8, !tbaa !3
  store ptr %3, ptr %8, align 8, !tbaa !18
  %9 = load ptr, ptr %5, align 8
  %10 = getelementptr inbounds nuw %"class.tinyxml2::XMLNode", ptr %9, i32 0, i32 3
  %11 = load ptr, ptr %6, align 8, !tbaa !14
  %12 = load ptr, ptr %8, align 8, !tbaa !18
  %13 = call noundef ptr @_ZN8tinyxml27StrPair9ParseTextEPcPKciPi(ptr noundef nonnull align 8 dereferenceable(24) %10, ptr noundef %11, ptr noundef @.str.27, i32 noundef 2, ptr noundef %12)
  store ptr %13, ptr %6, align 8, !tbaa !14
  %14 = load ptr, ptr %6, align 8, !tbaa !14
  %15 = icmp ne ptr %14, null
  br i1 %15, label %21, label %16

16:                                               ; preds = %4
  %17 = getelementptr inbounds nuw %"class.tinyxml2::XMLNode", ptr %9, i32 0, i32 1
  %18 = load ptr, ptr %17, align 8, !tbaa !113
  %19 = getelementptr inbounds nuw %"class.tinyxml2::XMLNode", ptr %9, i32 0, i32 4
  %20 = load i32, ptr %19, align 8, !tbaa !86
  call void (ptr, i32, i32, ptr, ...) @_ZN8tinyxml211XMLDocument8SetErrorENS_8XMLErrorEiPKcz(ptr noundef nonnull align 8 dereferenceable(776) %18, i32 noundef 12, i32 noundef %20, ptr noundef null)
  br label %21

21:                                               ; preds = %16, %4
  %22 = load ptr, ptr %6, align 8, !tbaa !14
  ret ptr %22
}