; Function Attrs: mustprogress uwtable
define noundef ptr @_ZN8tinyxml210XMLUnknown9ParseDeepEPcPNS_7StrPairEPi(ptr noundef nonnull align 8 captures(none) dereferenceable(104) %0, ptr noundef %1, ptr readnone captures(none) %2, ptr noundef captures(none) %3) unnamed_addr #4 align 2 {
  %5 = getelementptr inbounds nuw i8, ptr %0, i64 24
  %6 = load i8, ptr %1, align 1, !tbaa !12
  %.not21.i = icmp eq i8 %6, 0
  br i1 %.not21.i, label %_ZN8tinyxml27StrPair9ParseTextEPcPKciPi.exit.thread, label %.lr.ph.i

.lr.ph.i:                                         ; preds = %4, %.thread
  %lhsc = phi i8 [ %19, %.thread ], [ %6, %4 ]
  %.01822.i = phi ptr [ %18, %.thread ], [ %1, %4 ]
  switch i8 %lhsc, label %.thread [
    i8 62, label %7
    i8 10, label %15
  ]

7:                                                ; preds = %.lr.ph.i
  %8 = load i32, ptr %5, align 8, !tbaa !3
  %9 = and i32 %8, 512
  %.not.i.i.i = icmp eq i32 %9, 0
  br i1 %.not.i.i.i, label %_ZN8tinyxml27StrPair9ParseTextEPcPKciPi.exit, label %10

10:                                               ; preds = %7
  %11 = getelementptr inbounds nuw i8, ptr %0, i64 32
  %12 = load ptr, ptr %11, align 8, !tbaa !10
  %13 = icmp eq ptr %12, null
  br i1 %13, label %_ZN8tinyxml27StrPair9ParseTextEPcPKciPi.exit, label %14

14:                                               ; preds = %10
  tail call void @_ZdaPv(ptr noundef nonnull %12) #30
  br label %_ZN8tinyxml27StrPair9ParseTextEPcPKciPi.exit

15:                                               ; preds = %.lr.ph.i
  %16 = load i32, ptr %3, align 4, !tbaa !13
  %17 = add nsw i32 %16, 1
  store i32 %17, ptr %3, align 4, !tbaa !13
  br label %.thread

.thread:                                          ; preds = %.lr.ph.i, %15
  %18 = getelementptr inbounds nuw i8, ptr %.01822.i, i64 1
  %19 = load i8, ptr %18, align 1, !tbaa !12
  %.not.i = icmp eq i8 %19, 0
  br i1 %.not.i, label %_ZN8tinyxml27StrPair9ParseTextEPcPKciPi.exit.thread, label %.lr.ph.i, !llvm.loop !14

_ZN8tinyxml27StrPair9ParseTextEPcPKciPi.exit:     ; preds = %7, %10, %14
  %20 = getelementptr inbounds nuw i8, ptr %0, i64 32
  store ptr %1, ptr %20, align 8, !tbaa !10
  %21 = getelementptr inbounds nuw i8, ptr %0, i64 40
  store ptr %.01822.i, ptr %21, align 8, !tbaa !11
  store i32 258, ptr %5, align 8, !tbaa !3
  %22 = getelementptr inbounds nuw i8, ptr %.01822.i, i64 1
  br label %27

_ZN8tinyxml27StrPair9ParseTextEPcPKciPi.exit.thread: ; preds = %.thread, %4
  %23 = getelementptr inbounds nuw i8, ptr %0, i64 8
  %24 = load ptr, ptr %23, align 8, !tbaa !71
  %25 = getelementptr inbounds nuw i8, ptr %0, i64 48
  %26 = load i32, ptr %25, align 8, !tbaa !70
  tail call void (ptr, i32, i32, ptr, ...) @_ZN8tinyxml211XMLDocument8SetErrorENS_8XMLErrorEiPKcz(ptr noundef nonnull align 8 dereferenceable(776) %24, i32 noundef 12, i32 noundef %26, ptr noundef null)
  br label %27

27:                                               ; preds = %_ZN8tinyxml27StrPair9ParseTextEPcPKciPi.exit, %_ZN8tinyxml27StrPair9ParseTextEPcPKciPi.exit.thread
  %.0.i7 = phi ptr [ null, %_ZN8tinyxml27StrPair9ParseTextEPcPKciPi.exit.thread ], [ %22, %_ZN8tinyxml27StrPair9ParseTextEPcPKciPi.exit ]
  ret ptr %.0.i7
}